target datalayout = "e-m:e-p270:32:32-p271:32:32-p272:64:64-i64:64-i128:128-f80:128-n8:16:32:64-S128"
target triple = "x86_64-pc-linux-gnu"

%struct.LZ4IO_prefs_s = type { i32, i32, i32, i32, i64, i32, i32, i32, i32, i32, i32, i32, ptr, i32, i32 }

; Function Attrs: nounwind uwtable
define dso_local i64 @LZ4IO_setBlockSize(ptr noundef %0, i64 noundef %1) #0 {
  %3 = alloca ptr, align 8
  %4 = alloca i64, align 8
  %5 = alloca i32, align 4
  store ptr %0, ptr %3, align 8, !tbaa !4
  store i64 %1, ptr %4, align 8, !tbaa !32
  call void @llvm.lifetime.start.p0(i64 4, ptr %5) #13
  store i32 0, ptr %5, align 4, !tbaa !9
  %6 = load i64, ptr %4, align 8, !tbaa !32
  %7 = icmp ult i64 %6, 32
  br i1 %7, label %8, label %9

8:                                                ; preds = %2
  store i64 32, ptr %4, align 8, !tbaa !32
  br label %9

9:                                                ; preds = %8, %2
  %10 = load i64, ptr %4, align 8, !tbaa !32
  %11 = icmp ugt i64 %10, 4194304
  br i1 %11, label %12, label %13

12:                                               ; preds = %9
  store i64 4194304, ptr %4, align 8, !tbaa !32
  br label %13

13:                                               ; preds = %12, %9
  %14 = load i64, ptr %4, align 8, !tbaa !32
  %15 = load ptr, ptr %3, align 8, !tbaa !4
  %16 = getelementptr inbounds nuw %struct.LZ4IO_prefs_s, ptr %15, i32 0, i32 4
  store i64 %14, ptr %16, align 8, !tbaa !20
  %17 = load i64, ptr %4, align 8, !tbaa !32
  %18 = add i64 %17, -1
  store i64 %18, ptr %4, align 8, !tbaa !32
  br label %19

19:                                               ; preds = %23, %13
  %20 = load i64, ptr %4, align 8, !tbaa !32
  %21 = lshr i64 %20, 2
  store i64 %21, ptr %4, align 8, !tbaa !32
  %22 = icmp ne i64 %21, 0
  br i1 %22, label %23, label %26

23:                                               ; preds = %19
  %24 = load i32, ptr %5, align 4, !tbaa !9
  %25 = add i32 %24, 1
  store i32 %25, ptr %5, align 4, !tbaa !9
  br label %19, !llvm.loop !33

26:                                               ; preds = %19
  %27 = load i32, ptr %5, align 4, !tbaa !9
  %28 = icmp ult i32 %27, 7
  br i1 %28, label %29, label %30

29:                                               ; preds = %26
  store i32 7, ptr %5, align 4, !tbaa !9
  br label %30

30:                                               ; preds = %29, %26
  %31 = load i32, ptr %5, align 4, !tbaa !9
  %32 = sub i32 %31, 3
  %33 = load ptr, ptr %3, align 8, !tbaa !4
  %34 = getelementptr inbounds nuw %struct.LZ4IO_prefs_s, ptr %33, i32 0, i32 3
  store i32 %32, ptr %34, align 4, !tbaa !19
  %35 = load ptr, ptr %3, align 8, !tbaa !4
  %36 = getelementptr inbounds nuw %struct.LZ4IO_prefs_s, ptr %35, i32 0, i32 4
  %37 = load i64, ptr %36, align 8, !tbaa !20
  call void @llvm.lifetime.end.p0(i64 4, ptr %5) #13
  ret i64 %37
}