; Function Attrs: nofree norecurse nosync nounwind memory(argmem: write) uwtable
define dso_local range(i64 32, 4194305) i64 @LZ4IO_setBlockSize(ptr noundef writeonly captures(none) initializes((16, 24)) %0, i64 noundef %1) local_unnamed_addr #9 {
.lr.ph.preheader:
  %spec.store.select = tail call i64 @llvm.umax.i64(i64 %1, i64 32)
  %spec.store.select2 = tail call i64 @llvm.umin.i64(i64 %spec.store.select, i64 4194304)
  %2 = getelementptr inbounds nuw i8, ptr %0, i64 16
  store i64 %spec.store.select2, ptr %2, align 8, !tbaa !18
  %3 = add nsw i64 %spec.store.select2, -1
  br label %.lr.ph

.lr.ph:                                           ; preds = %.lr.ph.preheader, %.lr.ph
  %.016 = phi i32 [ %5, %.lr.ph ], [ 0, %.lr.ph.preheader ]
  %.01215 = phi i64 [ %4, %.lr.ph ], [ %3, %.lr.ph.preheader ]
  %4 = lshr i64 %.01215, 2
  %5 = add nuw nsw i32 %.016, 1
  %.not = icmp ult i64 %.01215, 16
  br i1 %.not, label %._crit_edge, label %.lr.ph, !llvm.loop !30

._crit_edge:                                      ; preds = %.lr.ph
  %spec.store.select1 = tail call i32 @llvm.umax.i32(i32 %5, i32 7)
  %6 = add nsw i32 %spec.store.select1, -3
  %7 = getelementptr inbounds nuw i8, ptr %0, i64 12
  store i32 %6, ptr %7, align 4, !tbaa !17
  ret i64 %spec.store.select2
}